; Function Attrs: nounwind uwtable
define dso_local void @AppendStringCommandOption(ptr noundef %0, i1 noundef zeroext %1, ptr noundef %2, ptr noundef %3) local_unnamed_addr #0 {
  %5 = getelementptr inbounds nuw i8, ptr %0, i64 8
  %6 = load i64, ptr %5, align 8
  %.not.i = icmp eq i64 %6, 0
  br i1 %.not.i, label %AppendPlainCommandOption.exit, label %7

7:                                                ; preds = %4
  %8 = load ptr, ptr %0, align 8
  %9 = getelementptr i8, ptr %8, i64 %6
  %10 = getelementptr i8, ptr %9, i64 -1
  %11 = load i8, ptr %10, align 1
  %.not7.i = icmp eq i8 %11, 40
  br i1 %.not7.i, label %AppendPlainCommandOption.exit, label %12

12:                                               ; preds = %7
  br i1 %1, label %13, label %14

13:                                               ; preds = %12
  tail call void @appendPQExpBufferStr(ptr noundef nonnull %0, ptr noundef nonnull @.str.54) #15
  br label %AppendPlainCommandOption.exit

14:                                               ; preds = %12
  tail call void @appendPQExpBufferChar(ptr noundef nonnull %0, i8 noundef signext 32) #15
  br label %AppendPlainCommandOption.exit

AppendPlainCommandOption.exit:                    ; preds = %4, %7, %13, %14
  tail call void (ptr, ptr, ...) @appendPQExpBuffer(ptr noundef nonnull %0, ptr noundef nonnull @.str.55, ptr noundef %2) #15
  %.not = icmp eq ptr %3, null
  br i1 %.not, label %22, label %15

15:                                               ; preds = %AppendPlainCommandOption.exit
  %16 = tail call i64 @strlen(ptr noundef nonnull dereferenceable(1) %3) #17
  %17 = shl i64 %16, 1
  %18 = or disjoint i64 %17, 1
  %19 = tail call ptr @palloc(i64 noundef %18) #15
  %20 = load ptr, ptr @conn, align 8
  %21 = tail call i64 @PQescapeStringConn(ptr noundef %20, ptr noundef %19, ptr noundef nonnull %3, i64 noundef %16, ptr noundef null) #15
  tail call void (ptr, ptr, ...) @appendPQExpBuffer(ptr noundef nonnull %0, ptr noundef nonnull @.str.56, ptr noundef %19) #15
  tail call void @pfree(ptr noundef %19) #15
  br label %22

22:                                               ; preds = %15, %AppendPlainCommandOption.exit
  ret void
}